target datalayout = "e-m:e-p270:32:32-p271:32:32-p272:64:64-i64:64-i128:128-f80:128-n8:16:32:64-S128"
target triple = "x86_64-pc-linux-gnu"

%struct.stat = type { i64, i64, i64, i32, i32, i32, i32, i64, i64, i64, i64, %struct.timespec, %struct.timespec, %struct.timespec, [3 x i64] }
%struct.timespec = type { i64, i64 }
%struct.cl_fmap = type { ptr, ptr, ptr, i64, i64, i64, i64, i8, i8, i8, i64, i64, i64, i64, ptr, ptr, ptr, ptr, ptr, ptr, ptr, i8, [16 x i8], i8, [20 x i8], i8, [32 x i8], ptr, ptr }
%struct.cl_engine = type { i32, i32, i32, [2 x i32], i32, i32, i32, ptr, i32, i64, i32, i32, i64, i64, i32, i32, i32, i32, ptr, ptr, ptr, ptr, ptr, ptr, ptr, ptr, ptr, ptr, ptr, ptr, ptr, ptr, ptr, ptr, ptr, ptr, ptr, i64, ptr, %struct.crtmgr, ptr, ptr, ptr, ptr, ptr, ptr, ptr, ptr, ptr, ptr, ptr, ptr, ptr, ptr, ptr, ptr, ptr, %struct.cli_all_bc, [7 x ptr], [7 x i32], i32, i32, i32, i32, i64, i64, i64, i64, i64, ptr, ptr, ptr, ptr, ptr, ptr, ptr, ptr, ptr, i32, i32, i32, i64, i64, i64, ptr }
%struct.crtmgr = type { ptr, i32 }
%struct.cli_all_bc = type { ptr, i32, ptr, %struct.cli_environment, i32 }
%struct.cli_environment = type { i32, i32, i32, i32, i32, i32, i32, [65 x i8], [65 x i8], [65 x i8], [65 x i8], [65 x i8], [65 x i8], [65 x i8], i8, i8, i8, i8, i8, i8, i8, i8, i8 }
%struct.cl_scan_options = type { i32, i32, i32, i32, i32 }

@.str.51 = private unnamed_addr constant [25 x i8] c"CRITICAL: fmap() failed\0A\00", align 1
@.str.63 = private unnamed_addr constant [49 x i8] c"cl_scandesc_callback: Can't fstat descriptor %d\0A\00", align 1
@.str.64 = private unnamed_addr constant [60 x i8] c"cl_scandesc_callback: File too small (%lu bytes), ignoring\0A\00", align 1
@.str.65 = private unnamed_addr constant [60 x i8] c"cl_scandesc_callback: File too large (%lu bytes), ignoring\0A\00", align 1
@.str.66 = private unnamed_addr constant [39 x i8] c"Heuristics.Limits.Exceeded.MaxFileSize\00", align 1

; Function Attrs: nounwind uwtable
define internal void @funmap(ptr noundef %0) #0 {
  %2 = alloca ptr, align 8
  store ptr %0, ptr %2, align 8
  %3 = load ptr, ptr %2, align 8
  %4 = getelementptr inbounds %struct.cl_fmap, ptr %3, i32 0, i32 14
  %5 = load ptr, ptr %4, align 8
  %6 = load ptr, ptr %2, align 8
  call void %5(ptr noundef %6)
  ret void
}

; Function Attrs: nounwind uwtable
define i32 @cl_scandesc_callback(i32 noundef %0, ptr noundef %1, ptr noundef %2, ptr noundef %3, ptr noundef %4, ptr noundef %5, ptr noundef %6) #0 {
  %8 = alloca i32, align 4
  %9 = alloca ptr, align 8
  %10 = alloca ptr, align 8
  %11 = alloca ptr, align 8
  %12 = alloca ptr, align 8
  %13 = alloca ptr, align 8
  %14 = alloca ptr, align 8
  %15 = alloca i32, align 4
  %16 = alloca ptr, align 8
  %17 = alloca %struct.stat, align 8
  %18 = alloca ptr, align 8
  store i32 %0, ptr %8, align 4
  store ptr %1, ptr %9, align 8
  store ptr %2, ptr %10, align 8
  store ptr %3, ptr %11, align 8
  store ptr %4, ptr %12, align 8
  store ptr %5, ptr %13, align 8
  store ptr %6, ptr %14, align 8
  store i32 0, ptr %15, align 4
  store ptr null, ptr %16, align 8
  store ptr null, ptr %18, align 8
  %19 = load i32, ptr %8, align 4
  %20 = call i32 @fstat(i32 noundef %19, ptr noundef %17) #11
  %21 = icmp eq i32 %20, -1
  br i1 %21, label %22, label %24

22:                                               ; preds = %7
  %23 = load i32, ptr %8, align 4
  call void (ptr, ...) @cli_errmsg(ptr noundef @.str.63, i32 noundef %23)
  store i32 11, ptr %15, align 4
  br label %95

24:                                               ; preds = %7
  %25 = getelementptr inbounds %struct.stat, ptr %17, i32 0, i32 8
  %26 = load i64, ptr %25, align 8
  %27 = icmp sle i64 %26, 5
  br i1 %27, label %28, label %31

28:                                               ; preds = %24
  %29 = getelementptr inbounds %struct.stat, ptr %17, i32 0, i32 8
  %30 = load i64, ptr %29, align 8
  call void (ptr, ...) @cli_dbgmsg(ptr noundef @.str.64, i64 noundef %30)
  store i32 0, ptr %15, align 4
  br label %95

31:                                               ; preds = %24
  %32 = load ptr, ptr %12, align 8
  %33 = getelementptr inbounds %struct.cl_engine, ptr %32, i32 0, i32 13
  %34 = load i64, ptr %33, align 8
  %35 = icmp ugt i64 %34, 0
  br i1 %35, label %36, label %70

36:                                               ; preds = %31
  %37 = getelementptr inbounds %struct.stat, ptr %17, i32 0, i32 8
  %38 = load i64, ptr %37, align 8
  %39 = load ptr, ptr %12, align 8
  %40 = getelementptr inbounds %struct.cl_engine, ptr %39, i32 0, i32 13
  %41 = load i64, ptr %40, align 8
  %42 = icmp ugt i64 %38, %41
  br i1 %42, label %43, label %70

43:                                               ; preds = %36
  %44 = getelementptr inbounds %struct.stat, ptr %17, i32 0, i32 8
  %45 = load i64, ptr %44, align 8
  call void (ptr, ...) @cli_dbgmsg(ptr noundef @.str.65, i64 noundef %45)
  %46 = load ptr, ptr %13, align 8
  %47 = getelementptr inbounds %struct.cl_scan_options, ptr %46, i32 0, i32 2
  %48 = load i32, ptr %47, align 4
  %49 = and i32 %48, 4
  %50 = icmp ne i32 %49, 0
  br i1 %50, label %51, label %68

51:                                               ; preds = %43
  %52 = load ptr, ptr %12, align 8
  %53 = getelementptr inbounds %struct.cl_engine, ptr %52, i32 0, i32 44
  %54 = load ptr, ptr %53, align 8
  %55 = icmp ne ptr %54, null
  br i1 %55, label %56, label %67

56:                                               ; preds = %51
  %57 = load ptr, ptr %12, align 8
  %58 = getelementptr inbounds %struct.cl_engine, ptr %57, i32 0, i32 44
  %59 = load ptr, ptr %58, align 8
  %60 = load i32, ptr %8, align 4
  %61 = load ptr, ptr %14, align 8
  call void %59(i32 noundef %60, ptr noundef @.str.66, ptr noundef %61)
  %62 = load ptr, ptr %10, align 8
  %63 = icmp ne ptr %62, null
  br i1 %63, label %64, label %66

64:                                               ; preds = %56
  %65 = load ptr, ptr %10, align 8
  store ptr @.str.66, ptr %65, align 8
  br label %66

66:                                               ; preds = %64, %56
  br label %67

67:                                               ; preds = %66, %51
  store i32 1, ptr %15, align 4
  br label %69

68:                                               ; preds = %43
  store i32 0, ptr %15, align 4
  br label %69

69:                                               ; preds = %68, %67
  br label %95

70:                                               ; preds = %36, %31
  %71 = load ptr, ptr %9, align 8
  %72 = icmp ne ptr null, %71
  br i1 %72, label %73, label %78

73:                                               ; preds = %70
  %74 = load ptr, ptr %9, align 8
  %75 = load ptr, ptr %9, align 8
  %76 = call i64 @strlen(ptr noundef %75) #9
  %77 = call i32 @cli_basename(ptr noundef %74, i64 noundef %76, ptr noundef %18)
  br label %78

78:                                               ; preds = %73, %70
  %79 = load i32, ptr %8, align 4
  %80 = getelementptr inbounds %struct.stat, ptr %17, i32 0, i32 8
  %81 = load i64, ptr %80, align 8
  %82 = load ptr, ptr %18, align 8
  %83 = call ptr @fmap(i32 noundef %79, i64 noundef 0, i64 noundef %81, ptr noundef %82)
  store ptr %83, ptr %16, align 8
  %84 = icmp eq ptr null, %83
  br i1 %84, label %85, label %86

85:                                               ; preds = %78
  call void (ptr, ...) @cli_errmsg(ptr noundef @.str.51)
  store i32 20, ptr %15, align 4
  br label %95

86:                                               ; preds = %78
  %87 = load ptr, ptr %16, align 8
  %88 = load ptr, ptr %9, align 8
  %89 = load ptr, ptr %10, align 8
  %90 = load ptr, ptr %11, align 8
  %91 = load ptr, ptr %12, align 8
  %92 = load ptr, ptr %13, align 8
  %93 = load ptr, ptr %14, align 8
  %94 = call i32 @scan_common(ptr noundef %87, ptr noundef %88, ptr noundef %89, ptr noundef %90, ptr noundef %91, ptr noundef %92, ptr noundef %93)
  store i32 %94, ptr %15, align 4
  br label %95

95:                                               ; preds = %86, %85, %69, %28, %22
  %96 = load ptr, ptr %16, align 8
  %97 = icmp ne ptr null, %96
  br i1 %97, label %98, label %100

98:                                               ; preds = %95
  %99 = load ptr, ptr %16, align 8
  call void @funmap(ptr noundef %99)
  br label %100

100:                                              ; preds = %98, %95
  %101 = load ptr, ptr %18, align 8
  %102 = icmp ne ptr null, %101
  br i1 %102, label %103, label %105

103:                                              ; preds = %100
  %104 = load ptr, ptr %18, align 8
  call void @free(ptr noundef %104) #11
  br label %105

105:                                              ; preds = %103, %100
  %106 = load i32, ptr %15, align 4
  ret i32 %106
}