; Function Attrs: nounwind uwtable
define i32 @cl_scandesc_callback(i32 noundef %0, ptr noundef %1, ptr noundef writeonly %2, ptr noundef %3, ptr noundef %4, ptr noundef %5, ptr noundef %6) local_unnamed_addr #0 {
  %8 = alloca %struct.stat, align 8
  %9 = alloca ptr, align 8
  store ptr null, ptr %9, align 8
  %10 = call i32 @fstat(i32 noundef %0, ptr noundef nonnull %8) #16
  %11 = icmp eq i32 %10, -1
  br i1 %11, label %12, label %13

12:                                               ; preds = %7
  tail call void (ptr, ...) @cli_errmsg(ptr noundef nonnull @.str.63, i32 noundef %0) #16
  br label %.thread

13:                                               ; preds = %7
  %14 = getelementptr inbounds nuw i8, ptr %8, i64 48
  %15 = load i64, ptr %14, align 8
  %16 = icmp slt i64 %15, 6
  br i1 %16, label %17, label %18

17:                                               ; preds = %13
  tail call void (ptr, ...) @cli_dbgmsg(ptr noundef nonnull @.str.64, i64 noundef %15) #16
  br label %.thread

18:                                               ; preds = %13
  %19 = getelementptr inbounds nuw i8, ptr %4, i64 72
  %20 = load i64, ptr %19, align 8
  %.not = icmp ne i64 %20, 0
  %21 = icmp ugt i64 %15, %20
  %or.cond = and i1 %.not, %21
  br i1 %or.cond, label %22, label %31

22:                                               ; preds = %18
  tail call void (ptr, ...) @cli_dbgmsg(ptr noundef nonnull @.str.65, i64 noundef %15) #16
  %23 = getelementptr inbounds nuw i8, ptr %5, i64 8
  %24 = load i32, ptr %23, align 4
  %25 = and i32 %24, 4
  %.not34 = icmp eq i32 %25, 0
  br i1 %.not34, label %.thread, label %26

26:                                               ; preds = %22
  %27 = getelementptr inbounds nuw i8, ptr %4, i64 312
  %28 = load ptr, ptr %27, align 8
  %.not35 = icmp eq ptr %28, null
  br i1 %.not35, label %.thread, label %29

29:                                               ; preds = %26
  tail call void %28(i32 noundef %0, ptr noundef nonnull @.str.66, ptr noundef %6) #16
  %.not36 = icmp eq ptr %2, null
  br i1 %.not36, label %.thread, label %30

30:                                               ; preds = %29
  store ptr @.str.66, ptr %2, align 8
  br label %.thread

31:                                               ; preds = %18
  %.not33 = icmp eq ptr %1, null
  br i1 %.not33, label %35, label %32

32:                                               ; preds = %31
  %33 = tail call i64 @strlen(ptr noundef nonnull dereferenceable(1) %1) #17
  %34 = call i32 @cli_basename(ptr noundef nonnull %1, i64 noundef %33, ptr noundef nonnull %9) #16
  %.pre = load ptr, ptr %9, align 8
  br label %35

35:                                               ; preds = %32, %31
  %36 = phi ptr [ %.pre, %32 ], [ null, %31 ]
  %37 = call ptr @fmap(i32 noundef %0, i64 noundef 0, i64 noundef %15, ptr noundef %36) #16
  %38 = icmp eq ptr %37, null
  br i1 %38, label %39, label %40

39:                                               ; preds = %35
  call void (ptr, ...) @cli_errmsg(ptr noundef nonnull @.str.51) #16
  br label %.thread

40:                                               ; preds = %35
  %41 = call fastcc i32 @scan_common(ptr noundef nonnull %37, ptr noundef %1, ptr noundef %2, ptr noundef %3, ptr noundef nonnull %4, ptr noundef %5, ptr noundef %6)
  %42 = getelementptr inbounds nuw i8, ptr %37, i64 96
  %43 = load ptr, ptr %42, align 8
  call void %43(ptr noundef nonnull %37) #16
  br label %.thread

.thread:                                          ; preds = %22, %26, %30, %29, %39, %17, %12, %40
  %.02442 = phi i32 [ %41, %40 ], [ 0, %22 ], [ 1, %26 ], [ 1, %30 ], [ 1, %29 ], [ 20, %39 ], [ 0, %17 ], [ 11, %12 ]
  %44 = load ptr, ptr %9, align 8
  %.not38 = icmp eq ptr %44, null
  br i1 %.not38, label %46, label %45

45:                                               ; preds = %.thread
  call void @free(ptr noundef nonnull %44) #16
  br label %46

46:                                               ; preds = %45, %.thread
  ret i32 %.02442
}